; ModuleID = '10/1528.c'
source_filename = "10/1528.c"
target datalayout = "e-m:e-p270:32:32-p271:32:32-p272:64:64-i64:64-f80:128-n8:16:32:64-S128"
target triple = "x86_64-pc-linux-gnu"

@h = common dso_local global [26 x i32] zeroinitializer, align 16
@.str = private unnamed_addr constant [3 x i8] c"%d\00", align 1
@n = common dso_local global i32 0, align 4
@i = common dso_local global i32 0, align 4

; Function Attrs: noinline nounwind uwtable
define dso_local i32 @max(i32 %0, i32 %1) #0 {
  %3 = alloca i32, align 4
  %4 = alloca i32, align 4
  %5 = alloca i32, align 4
  store i32 %0, i32* %4, align 4
  store i32 %1, i32* %5, align 4
  %6 = load i32, i32* %4, align 4
  %7 = load i32, i32* %5, align 4
  %8 = icmp sgt i32 %6, %7
  br i1 %8, label %9, label %11

9:                                                ; preds = %2
  %10 = load i32, i32* %4, align 4
  store i32 %10, i32* %3, align 4
  br label %13

11:                                               ; preds = %2
  %12 = load i32, i32* %5, align 4
  store i32 %12, i32* %3, align 4
  br label %13

13:                                               ; preds = %11, %9
  %14 = load i32, i32* %3, align 4
  ret i32 %14
}

; Function Attrs: noinline nounwind uwtable
define dso_local i32 @f(i32 %0, i32 %1) #0 {
  %3 = alloca i32, align 4
  %4 = alloca i32, align 4
  %5 = alloca i32, align 4
  store i32 %0, i32* %4, align 4
  store i32 %1, i32* %5, align 4
  %6 = load i32, i32* %4, align 4
  %7 = icmp eq i32 %6, 1
  br i1 %7, label %8, label %14

8:                                                ; preds = %2
  %9 = load i32, i32* getelementptr inbounds ([26 x i32], [26 x i32]* @h, i64 0, i64 1), align 4
  %10 = load i32, i32* %5, align 4
  %11 = icmp sge i32 %9, %10
  br i1 %11, label %12, label %13

12:                                               ; preds = %8
  store i32 1, i32* %3, align 4
  br label %40

13:                                               ; preds = %8
  store i32 0, i32* %3, align 4
  br label %40

14:                                               ; preds = %2
  %15 = load i32, i32* %4, align 4
  %16 = sext i32 %15 to i64
  %17 = getelementptr inbounds [26 x i32], [26 x i32]* @h, i64 0, i64 %16
  %18 = load i32, i32* %17, align 4
  %19 = load i32, i32* %5, align 4
  %20 = icmp slt i32 %18, %19
  br i1 %20, label %21, label %26

21:                                               ; preds = %14
  %22 = load i32, i32* %4, align 4
  %23 = sub nsw i32 %22, 1
  %24 = load i32, i32* %5, align 4
  %25 = call i32 @f(i32 %23, i32 %24)
  store i32 %25, i32* %3, align 4
  br label %40

26:                                               ; preds = %14
  %27 = load i32, i32* %4, align 4
  %28 = sub nsw i32 %27, 1
  %29 = load i32, i32* %5, align 4
  %30 = call i32 @f(i32 %28, i32 %29)
  %31 = load i32, i32* %4, align 4
  %32 = sub nsw i32 %31, 1
  %33 = load i32, i32* %4, align 4
  %34 = sext i32 %33 to i64
  %35 = getelementptr inbounds [26 x i32], [26 x i32]* @h, i64 0, i64 %34
  %36 = load i32, i32* %35, align 4
  %37 = call i32 @f(i32 %32, i32 %36)
  %38 = add nsw i32 %37, 1
  %39 = call i32 @max(i32 %30, i32 %38)
  store i32 %39, i32* %3, align 4
  br label %40

40:                                               ; preds = %26, %21, %13, %12
  %41 = load i32, i32* %3, align 4
  ret i32 %41
}

; Function Attrs: noinline nounwind uwtable
define dso_local void @main() #0 {
  %1 = call i32 (i8*, ...) @__isoc99_scanf(i8* getelementptr inbounds ([3 x i8], [3 x i8]* @.str, i64 0, i64 0), i32* @n)
  store i32 1, i32* @i, align 4
  br label %2

2:                                                ; preds = %11, %0
  %3 = load i32, i32* @i, align 4
  %4 = load i32, i32* @n, align 4
  %5 = icmp sle i32 %3, %4
  br i1 %5, label %6, label %14

6:                                                ; preds = %2
  %7 = load i32, i32* @i, align 4
  %8 = sext i32 %7 to i64
  %9 = getelementptr inbounds [26 x i32], [26 x i32]* @h, i64 0, i64 %8
  %10 = call i32 (i8*, ...) @__isoc99_scanf(i8* getelementptr inbounds ([3 x i8], [3 x i8]* @.str, i64 0, i64 0), i32* %9)
  br label %11

11:                                               ; preds = %6
  %12 = load i32, i32* @i, align 4
  %13 = add nsw i32 %12, 1
  store i32 %13, i32* @i, align 4
  br label %2

14:                                               ; preds = %2
  %15 = load i32, i32* @n, align 4
  %16 = call i32 @f(i32 %15, i32 0)
  %17 = call i32 (i8*, ...) @printf(i8* getelementptr inbounds ([3 x i8], [3 x i8]* @.str, i64 0, i64 0), i32 %16)
  ret void
}

declare dso_local i32 @__isoc99_scanf(i8*, ...) #1

declare dso_local i32 @printf(i8*, ...) #1


!llvm.module.flags = !{!0}
!llvm.ident = !{!1}

!0 = !{i32 1, !"wchar_size", i32 4}
!1 = !{!"clang version 10.0.0-4ubuntu1 "}
